TN:
SF:/home/ablanch/my_git/sac-format/src/sac_format.cpp
FN:8,_ZN6sacfmt13word_positionEi
FN:10,_ZN6sacfmt13int_to_binaryEi
FN:17,_ZN6sacfmt13binary_to_intESt6bitsetILm32EE
FN:30,_ZN6sacfmt15float_to_binaryEf
FN:32,_ZN6sacfmt15binary_to_floatERKSt6bitsetILm32EE
FN:35,_ZN6sacfmt16double_to_binaryEd
FN:37,_ZN6sacfmt16binary_to_doubleERKSt6bitsetILm64EE
FN:40,_ZN6sacfmt21remove_leading_spacesERNSt7__cxx1112basic_stringIcSt11char_traitsIcESaIcEEE
FN:45,_ZN6sacfmt22remove_trailing_spacesERNSt7__cxx1112basic_stringIcSt11char_traitsIcESaIcEEE
FN:52,_ZN6sacfmt15string_cleaningERKNSt7__cxx1112basic_stringIcSt11char_traitsIcESaIcEEE
FN:63,_ZN6sacfmt16string_to_binaryENSt7__cxx1112basic_stringIcSt11char_traitsIcESaIcEEE
FN:86,_ZN6sacfmt16binary_to_stringB5cxx11ERKSt6bitsetILm64EE
FN:99,_ZN6sacfmt21long_string_to_binaryENSt7__cxx1112basic_stringIcSt11char_traitsIcESaIcEEE
FN:120,_ZN6sacfmt21binary_to_long_stringB5cxx11ERKSt6bitsetILm128EE
FN:133,_ZN6sacfmt14bool_to_binaryEb
FN:139,_ZN6sacfmt14binary_to_boolERKSt6bitsetILm32EE
FN:141,_ZN6sacfmt12concat_wordsERKSt6bitsetILm32EES3_
FN:149,_ZN6sacfmt12concat_wordsERKSt6bitsetILm64EES3_
FN:159,_ZN6sacfmt9read_wordEPSt14basic_ifstreamIcSt11char_traitsIcEE
FN:181,_ZN6sacfmt14read_two_wordsEPSt14basic_ifstreamIcSt11char_traitsIcEE
FN:189,_ZN6sacfmt15read_four_wordsEPSt14basic_ifstreamIcSt11char_traitsIcEE
FN:197,_ZN6sacfmt9read_dataEPSt14basic_ifstreamIcSt11char_traitsIcEEmi
FN:210,_ZN6sacfmt11write_wordsEPSt14basic_ofstreamIcSt11char_traitsIcEERKSt6vectorIcSaIcEE
FN:217,_ZN6sacfmt15convert_to_wordIfEESt6vectorIcSaIcEET_
FN:217,_ZN6sacfmt15convert_to_wordIiEESt6vectorIcSaIcEET_
FN:233,_ZN6sacfmt15convert_to_wordEd
FN:247,_ZN6sacfmt16convert_to_wordsILm16EEESt5arrayIcXT_EERKNSt7__cxx1112basic_stringIcSt11char_traitsIcESaIcEEEi
FN:247,_ZN6sacfmt16convert_to_wordsILm8EEESt5arrayIcXT_EERKNSt7__cxx1112basic_stringIcSt11char_traitsIcESaIcEEEi
FN:247,_ZN6sacfmt16convert_to_wordsILm4EEESt5arrayIcXT_EERKNSt7__cxx1112basic_stringIcSt11char_traitsIcESaIcEEEi
FN:265,_ZN6sacfmt12bool_to_wordEb
FN:277,_ZN6sacfmt22equal_within_toleranceERKSt6vectorIdSaIdEES4_d
FN:288,_ZN6sacfmt22equal_within_toleranceEddd
FN:296,_ZN6sacfmt5TraceC2Ev
FN:304,_ZNK6sacfmt5TraceeqERKS0_
FN:315,_ZNK6sacfmt5Trace6depminEv
FN:316,_ZNK6sacfmt5Trace6depmaxEv
FN:317,_ZNK6sacfmt5Trace6odeltaEv
FN:318,_ZNK6sacfmt5Trace5resp0Ev
FN:319,_ZNK6sacfmt5Trace5resp1Ev
FN:320,_ZNK6sacfmt5Trace5resp2Ev
FN:321,_ZNK6sacfmt5Trace5resp3Ev
FN:322,_ZNK6sacfmt5Trace5resp4Ev
FN:323,_ZNK6sacfmt5Trace5resp5Ev
FN:324,_ZNK6sacfmt5Trace5resp6Ev
FN:325,_ZNK6sacfmt5Trace5resp7Ev
FN:326,_ZNK6sacfmt5Trace5resp8Ev
FN:327,_ZNK6sacfmt5Trace5resp9Ev
FN:328,_ZNK6sacfmt5Trace4stelEv
FN:329,_ZNK6sacfmt5Trace4stdpEv
FN:330,_ZNK6sacfmt5Trace4evelEv
FN:331,_ZNK6sacfmt5Trace4evdpEv
FN:332,_ZNK6sacfmt5Trace3magEv
FN:333,_ZNK6sacfmt5Trace5user0Ev
FN:334,_ZNK6sacfmt5Trace5user1Ev
FN:335,_ZNK6sacfmt5Trace5user2Ev
FN:336,_ZNK6sacfmt5Trace5user3Ev
FN:337,_ZNK6sacfmt5Trace5user4Ev
FN:338,_ZNK6sacfmt5Trace5user5Ev
FN:339,_ZNK6sacfmt5Trace5user6Ev
FN:340,_ZNK6sacfmt5Trace5user7Ev
FN:341,_ZNK6sacfmt5Trace5user8Ev
FN:342,_ZNK6sacfmt5Trace5user9Ev
FN:343,_ZNK6sacfmt5Trace4distEv
FN:344,_ZNK6sacfmt5Trace2azEv
FN:345,_ZNK6sacfmt5Trace3bazEv
FN:346,_ZNK6sacfmt5Trace5gcarcEv
FN:347,_ZNK6sacfmt5Trace6depmenEv
FN:348,_ZNK6sacfmt5Trace5cmpazEv
FN:349,_ZNK6sacfmt5Trace6cmpincEv
FN:350,_ZNK6sacfmt5Trace8xminimumEv
FN:351,_ZNK6sacfmt5Trace8xmaximumEv
FN:352,_ZNK6sacfmt5Trace8yminimumEv
FN:353,_ZNK6sacfmt5Trace8ymaximumEv
FN:355,_ZNK6sacfmt5Trace5deltaEv
FN:356,_ZNK6sacfmt5Trace1bEv
FN:357,_ZNK6sacfmt5Trace1eEv
FN:358,_ZNK6sacfmt5Trace1oEv
FN:359,_ZNK6sacfmt5Trace1aEv
FN:360,_ZNK6sacfmt5Trace2t0Ev
FN:361,_ZNK6sacfmt5Trace2t1Ev
FN:362,_ZNK6sacfmt5Trace2t2Ev
FN:363,_ZNK6sacfmt5Trace2t3Ev
FN:364,_ZNK6sacfmt5Trace2t4Ev
FN:365,_ZNK6sacfmt5Trace2t5Ev
FN:366,_ZNK6sacfmt5Trace2t6Ev
FN:367,_ZNK6sacfmt5Trace2t7Ev
FN:368,_ZNK6sacfmt5Trace2t8Ev
FN:369,_ZNK6sacfmt5Trace2t9Ev
FN:370,_ZNK6sacfmt5Trace1fEv
FN:371,_ZNK6sacfmt5Trace4stlaEv
FN:372,_ZNK6sacfmt5Trace4stloEv
FN:373,_ZNK6sacfmt5Trace4evlaEv
FN:374,_ZNK6sacfmt5Trace4evloEv
FN:375,_ZNK6sacfmt5Trace2sbEv
FN:376,_ZNK6sacfmt5Trace6sdeltaEv
FN:378,_ZNK6sacfmt5Trace6nzyearEv
FN:379,_ZNK6sacfmt5Trace6nzjdayEv
FN:380,_ZNK6sacfmt5Trace6nzhourEv
FN:381,_ZNK6sacfmt5Trace5nzminEv
FN:382,_ZNK6sacfmt5Trace5nzsecEv
FN:383,_ZNK6sacfmt5Trace6nzmsecEv
FN:384,_ZNK6sacfmt5Trace5nvhdrEv
FN:385,_ZNK6sacfmt5Trace5noridEv
FN:386,_ZNK6sacfmt5Trace5nevidEv
FN:387,_ZNK6sacfmt5Trace4nptsEv
FN:388,_ZNK6sacfmt5Trace6nsnptsEv
FN:389,_ZNK6sacfmt5Trace5nwfidEv
FN:390,_ZNK6sacfmt5Trace6nxsizeEv
FN:391,_ZNK6sacfmt5Trace6nysizeEv
FN:392,_ZNK6sacfmt5Trace6iftypeEv
FN:393,_ZNK6sacfmt5Trace4idepEv
FN:394,_ZNK6sacfmt5Trace6iztypeEv
FN:395,_ZNK6sacfmt5Trace5iinstEv
FN:396,_ZNK6sacfmt5Trace6istregEv
FN:397,_ZNK6sacfmt5Trace6ievregEv
FN:398,_ZNK6sacfmt5Trace6ievtypEv
FN:399,_ZNK6sacfmt5Trace5iqualEv
FN:400,_ZNK6sacfmt5Trace6isynthEv
FN:401,_ZNK6sacfmt5Trace7imagtypEv
FN:402,_ZNK6sacfmt5Trace7imagsrcEv
FN:403,_ZNK6sacfmt5Trace5ibodyEv
FN:405,_ZNK6sacfmt5Trace5levenEv
FN:406,_ZNK6sacfmt5Trace6lpspolEv
FN:407,_ZNK6sacfmt5Trace6lovrokEv
FN:408,_ZNK6sacfmt5Trace6lcaldaEv
FN:410,_ZNK6sacfmt5Trace5kstnmB5cxx11Ev
FN:411,_ZNK6sacfmt5Trace5kevnmB5cxx11Ev
FN:412,_ZNK6sacfmt5Trace5kholeB5cxx11Ev
FN:413,_ZNK6sacfmt5Trace2koB5cxx11Ev
FN:414,_ZNK6sacfmt5Trace2kaB5cxx11Ev
FN:415,_ZNK6sacfmt5Trace3kt0B5cxx11Ev
FN:416,_ZNK6sacfmt5Trace3kt1B5cxx11Ev
FN:417,_ZNK6sacfmt5Trace3kt2B5cxx11Ev
FN:418,_ZNK6sacfmt5Trace3kt3B5cxx11Ev
FN:419,_ZNK6sacfmt5Trace3kt4B5cxx11Ev
FN:420,_ZNK6sacfmt5Trace3kt5B5cxx11Ev
FN:421,_ZNK6sacfmt5Trace3kt6B5cxx11Ev
FN:422,_ZNK6sacfmt5Trace3kt7B5cxx11Ev
FN:423,_ZNK6sacfmt5Trace3kt8B5cxx11Ev
FN:424,_ZNK6sacfmt5Trace3kt9B5cxx11Ev
FN:425,_ZNK6sacfmt5Trace2kfB5cxx11Ev
FN:426,_ZNK6sacfmt5Trace6kuser0B5cxx11Ev
FN:427,_ZNK6sacfmt5Trace6kuser1B5cxx11Ev
FN:428,_ZNK6sacfmt5Trace6kuser2B5cxx11Ev
FN:429,_ZNK6sacfmt5Trace6kcmpnmB5cxx11Ev
FN:430,_ZNK6sacfmt5Trace6knetwkB5cxx11Ev
FN:431,_ZNK6sacfmt5Trace6kdatrdB5cxx11Ev
FN:432,_ZNK6sacfmt5Trace5kinstB5cxx11Ev
FN:434,_ZNK6sacfmt5Trace5data1Ev
FN:435,_ZNK6sacfmt5Trace5data2Ev
FN:438,_ZN6sacfmt5Trace6depminEf
FN:439,_ZN6sacfmt5Trace6depmaxEf
FN:440,_ZN6sacfmt5Trace6odeltaEf
FN:441,_ZN6sacfmt5Trace5resp0Ef
FN:442,_ZN6sacfmt5Trace5resp1Ef
FN:443,_ZN6sacfmt5Trace5resp2Ef
FN:444,_ZN6sacfmt5Trace5resp3Ef
FN:445,_ZN6sacfmt5Trace5resp4Ef
FN:446,_ZN6sacfmt5Trace5resp5Ef
FN:447,_ZN6sacfmt5Trace5resp6Ef
FN:448,_ZN6sacfmt5Trace5resp7Ef
FN:449,_ZN6sacfmt5Trace5resp8Ef
FN:450,_ZN6sacfmt5Trace5resp9Ef
FN:451,_ZN6sacfmt5Trace4stelEf
FN:452,_ZN6sacfmt5Trace4stdpEf
FN:453,_ZN6sacfmt5Trace4evelEf
FN:454,_ZN6sacfmt5Trace4evdpEf
FN:455,_ZN6sacfmt5Trace3magEf
FN:456,_ZN6sacfmt5Trace5user0Ef
FN:457,_ZN6sacfmt5Trace5user1Ef
FN:458,_ZN6sacfmt5Trace5user2Ef
FN:459,_ZN6sacfmt5Trace5user3Ef
FN:460,_ZN6sacfmt5Trace5user4Ef
FN:461,_ZN6sacfmt5Trace5user5Ef
FN:462,_ZN6sacfmt5Trace5user6Ef
FN:463,_ZN6sacfmt5Trace5user7Ef
FN:464,_ZN6sacfmt5Trace5user8Ef
FN:465,_ZN6sacfmt5Trace5user9Ef
FN:466,_ZN6sacfmt5Trace4distEf
FN:467,_ZN6sacfmt5Trace2azEf
FN:468,_ZN6sacfmt5Trace3bazEf
FN:469,_ZN6sacfmt5Trace5gcarcEf
FN:470,_ZN6sacfmt5Trace6depmenEf
FN:471,_ZN6sacfmt5Trace5cmpazEf
FN:472,_ZN6sacfmt5Trace6cmpincEf
FN:473,_ZN6sacfmt5Trace8xminimumEf
FN:474,_ZN6sacfmt5Trace8xmaximumEf
FN:475,_ZN6sacfmt5Trace8yminimumEf
FN:476,_ZN6sacfmt5Trace8ymaximumEf
FN:478,_ZN6sacfmt5Trace5deltaEd
FN:479,_ZN6sacfmt5Trace1bEd
FN:480,_ZN6sacfmt5Trace1eEd
FN:481,_ZN6sacfmt5Trace1oEd
FN:482,_ZN6sacfmt5Trace1aEd
FN:483,_ZN6sacfmt5Trace2t0Ed
FN:484,_ZN6sacfmt5Trace2t1Ed
FN:485,_ZN6sacfmt5Trace2t2Ed
FN:486,_ZN6sacfmt5Trace2t3Ed
FN:487,_ZN6sacfmt5Trace2t4Ed
FN:488,_ZN6sacfmt5Trace2t5Ed
FN:489,_ZN6sacfmt5Trace2t6Ed
FN:490,_ZN6sacfmt5Trace2t7Ed
FN:491,_ZN6sacfmt5Trace2t8Ed
FN:492,_ZN6sacfmt5Trace2t9Ed
FN:493,_ZN6sacfmt5Trace1fEd
FN:494,_ZN6sacfmt5Trace4stlaEd
FN:495,_ZN6sacfmt5Trace4stloEd
FN:496,_ZN6sacfmt5Trace4evlaEd
FN:497,_ZN6sacfmt5Trace4evloEd
FN:498,_ZN6sacfmt5Trace2sbEd
FN:499,_ZN6sacfmt5Trace6sdeltaEd
FN:501,_ZN6sacfmt5Trace6nzyearEi
FN:502,_ZN6sacfmt5Trace6nzjdayEi
FN:503,_ZN6sacfmt5Trace6nzhourEi
FN:504,_ZN6sacfmt5Trace5nzminEi
FN:505,_ZN6sacfmt5Trace5nzsecEi
FN:506,_ZN6sacfmt5Trace6nzmsecEi
FN:507,_ZN6sacfmt5Trace5nvhdrEi
FN:508,_ZN6sacfmt5Trace5noridEi
FN:509,_ZN6sacfmt5Trace5nevidEi
FN:510,_ZN6sacfmt5Trace4nptsEi
FN:511,_ZN6sacfmt5Trace6nsnptsEi
FN:512,_ZN6sacfmt5Trace5nwfidEi
FN:513,_ZN6sacfmt5Trace6nxsizeEi
FN:514,_ZN6sacfmt5Trace6nysizeEi
FN:515,_ZN6sacfmt5Trace6iftypeEi
FN:516,_ZN6sacfmt5Trace4idepEi
FN:517,_ZN6sacfmt5Trace6iztypeEi
FN:518,_ZN6sacfmt5Trace5iinstEi
FN:519,_ZN6sacfmt5Trace6istregEi
FN:520,_ZN6sacfmt5Trace6ievregEi
FN:521,_ZN6sacfmt5Trace6ievtypEi
FN:522,_ZN6sacfmt5Trace5iqualEi
FN:523,_ZN6sacfmt5Trace6isynthEi
FN:524,_ZN6sacfmt5Trace7imagtypEi
FN:525,_ZN6sacfmt5Trace7imagsrcEi
FN:526,_ZN6sacfmt5Trace5ibodyEi
FN:528,_ZN6sacfmt5Trace5levenEb
FN:529,_ZN6sacfmt5Trace6lpspolEb
FN:530,_ZN6sacfmt5Trace6lovrokEb
FN:531,_ZN6sacfmt5Trace6lcaldaEb
FN:533,_ZN6sacfmt5Trace5kstnmERKNSt7__cxx1112basic_stringIcSt11char_traitsIcESaIcEEE
FN:534,_ZN6sacfmt5Trace5kevnmERKNSt7__cxx1112basic_stringIcSt11char_traitsIcESaIcEEE
FN:535,_ZN6sacfmt5Trace5kholeERKNSt7__cxx1112basic_stringIcSt11char_traitsIcESaIcEEE
FN:536,_ZN6sacfmt5Trace2koERKNSt7__cxx1112basic_stringIcSt11char_traitsIcESaIcEEE
FN:537,_ZN6sacfmt5Trace2kaERKNSt7__cxx1112basic_stringIcSt11char_traitsIcESaIcEEE
FN:538,_ZN6sacfmt5Trace3kt0ERKNSt7__cxx1112basic_stringIcSt11char_traitsIcESaIcEEE
FN:539,_ZN6sacfmt5Trace3kt1ERKNSt7__cxx1112basic_stringIcSt11char_traitsIcESaIcEEE
FN:540,_ZN6sacfmt5Trace3kt2ERKNSt7__cxx1112basic_stringIcSt11char_traitsIcESaIcEEE
FN:541,_ZN6sacfmt5Trace3kt3ERKNSt7__cxx1112basic_stringIcSt11char_traitsIcESaIcEEE
FN:542,_ZN6sacfmt5Trace3kt4ERKNSt7__cxx1112basic_stringIcSt11char_traitsIcESaIcEEE
FN:543,_ZN6sacfmt5Trace3kt5ERKNSt7__cxx1112basic_stringIcSt11char_traitsIcESaIcEEE
FN:544,_ZN6sacfmt5Trace3kt6ERKNSt7__cxx1112basic_stringIcSt11char_traitsIcESaIcEEE
FN:545,_ZN6sacfmt5Trace3kt7ERKNSt7__cxx1112basic_stringIcSt11char_traitsIcESaIcEEE
FN:546,_ZN6sacfmt5Trace3kt8ERKNSt7__cxx1112basic_stringIcSt11char_traitsIcESaIcEEE
FN:547,_ZN6sacfmt5Trace3kt9ERKNSt7__cxx1112basic_stringIcSt11char_traitsIcESaIcEEE
FN:548,_ZN6sacfmt5Trace2kfERKNSt7__cxx1112basic_stringIcSt11char_traitsIcESaIcEEE
FN:549,_ZN6sacfmt5Trace6kuser0ERKNSt7__cxx1112basic_stringIcSt11char_traitsIcESaIcEEE
FN:550,_ZN6sacfmt5Trace6kuser1ERKNSt7__cxx1112basic_stringIcSt11char_traitsIcESaIcEEE
FN:551,_ZN6sacfmt5Trace6kuser2ERKNSt7__cxx1112basic_stringIcSt11char_traitsIcESaIcEEE
FN:552,_ZN6sacfmt5Trace6kcmpnmERKNSt7__cxx1112basic_stringIcSt11char_traitsIcESaIcEEE
FN:553,_ZN6sacfmt5Trace6knetwkERKNSt7__cxx1112basic_stringIcSt11char_traitsIcESaIcEEE
FN:554,_ZN6sacfmt5Trace6kdatrdERKNSt7__cxx1112basic_stringIcSt11char_traitsIcESaIcEEE
FN:555,_ZN6sacfmt5Trace5kinstERKNSt7__cxx1112basic_stringIcSt11char_traitsIcESaIcEEE
FN:557,_ZN6sacfmt5Trace5data1ERKSt6vectorIdSaIdEE
FN:558,_ZN6sacfmt5Trace5data2ERKSt6vectorIdSaIdEE
FN:561,_ZN6sacfmt5TraceC2ERKNSt10filesystem7__cxx114pathE
FN:749,_ZN6sacfmt5Trace5writeERKNSt10filesystem7__cxx114pathEb
FN:967,_ZN6sacfmt5Trace12legacy_writeERKNSt10filesystem7__cxx114pathE
FNDA:45,_ZN6sacfmt5Trace6depmenEf
FNDA:30,_ZNK6sacfmt5Trace6nzmsecEv
FNDA:52,_ZNK6sacfmt5Trace2t1Ev
FNDA:67,_ZN6sacfmt5Trace1oEd
FNDA:52,_ZNK6sacfmt5Trace2t5Ev
FNDA:52,_ZNK6sacfmt5Trace6sdeltaEv
FNDA:32,_ZN6sacfmt21binary_to_long_stringB5cxx11ERKSt6bitsetILm128EE
FNDA:184,_ZNK6sacfmt5Trace2azEv
FNDA:45,_ZN6sacfmt5Trace5resp9Ef
FNDA:45,_ZN6sacfmt5Trace6iftypeEi
FNDA:30,_ZNK6sacfmt5Trace5cmpazEv
FNDA:45,_ZN6sacfmt5Trace6nzmsecEi
FNDA:30,_ZNK6sacfmt5Trace5user2Ev
FNDA:45,_ZN6sacfmt5Trace5iinstEi
FNDA:542,_ZN6sacfmt21remove_leading_spacesERNSt7__cxx1112basic_stringIcSt11char_traitsIcESaIcEEE
FNDA:30,_ZNK6sacfmt5Trace6kdatrdB5cxx11Ev
FNDA:45,_ZN6sacfmt5Trace3kt2ERKNSt7__cxx1112basic_stringIcSt11char_traitsIcESaIcEEE
FNDA:52,_ZNK6sacfmt5Trace1oEv
FNDA:45,_ZN6sacfmt5Trace6nysizeEi
FNDA:22,_ZN6sacfmt9read_dataEPSt14basic_ifstreamIcSt11char_traitsIcEEmi
FNDA:30,_ZNK6sacfmt5Trace6odeltaEv
FNDA:118,_ZNK6sacfmt5Trace4nptsEv
FNDA:30,_ZNK6sacfmt5Trace5user8Ev
FNDA:52,_ZNK6sacfmt5Trace2sbEv
FNDA:67,_ZN6sacfmt5Trace2t8Ed
FNDA:30,_ZNK6sacfmt5Trace3kt0B5cxx11Ev
FNDA:52,_ZNK6sacfmt5Trace2t4Ev
FNDA:31,_ZNK6sacfmt5Trace6lpspolEv
FNDA:52,_ZNK6sacfmt5Trace1eEv
FNDA:52,_ZNK6sacfmt5Trace1fEv
FNDA:45,_ZN6sacfmt5Trace3magEf
FNDA:45,_ZN6sacfmt5Trace7imagsrcEi
FNDA:45,_ZN6sacfmt5Trace5nzsecEi
FNDA:30,_ZNK6sacfmt5Trace2koB5cxx11Ev
FNDA:45,_ZN6sacfmt5Trace6odeltaEf
FNDA:30,_ZNK6sacfmt5Trace5resp1Ev
FNDA:30,_ZNK6sacfmt5Trace3kt6B5cxx11Ev
FNDA:52,_ZNK6sacfmt5Trace4evloEv
FNDA:30,_ZNK6sacfmt5Trace3kt7B5cxx11Ev
FNDA:8,_ZN6sacfmt16string_to_binaryENSt7__cxx1112basic_stringIcSt11char_traitsIcESaIcEEE
FNDA:52,_ZNK6sacfmt5Trace6iztypeEv
FNDA:52,_ZN6sacfmt5Trace5data1ERKSt6vectorIdSaIdEE
FNDA:12,_ZN6sacfmt22equal_within_toleranceERKSt6vectorIdSaIdEES4_d
FNDA:45,_ZN6sacfmt5Trace6nsnptsEi
FNDA:53,_ZN6sacfmt5Trace5nvhdrEi
FNDA:67,_ZN6sacfmt5Trace1eEd
FNDA:30,_ZNK6sacfmt5Trace5user3Ev
FNDA:45,_ZN6sacfmt5Trace6istregEi
FNDA:30,_ZNK6sacfmt5Trace4stdpEv
FNDA:45,_ZN6sacfmt5Trace5nwfidEi
FNDA:45,_ZN6sacfmt5Trace4stdpEf
FNDA:67,_ZN6sacfmt5Trace2t6Ed
FNDA:52,_ZNK6sacfmt5Trace1bEv
FNDA:2,_ZN6sacfmt14bool_to_binaryEb
FNDA:45,_ZN6sacfmt5Trace5resp0Ef
FNDA:30,_ZNK6sacfmt5Trace3kt2B5cxx11Ev
FNDA:67,_ZN6sacfmt5Trace1fEd
FNDA:45,_ZN6sacfmt5Trace5resp4Ef
FNDA:30,_ZNK6sacfmt5Trace6cmpincEv
FNDA:45,_ZN6sacfmt5Trace5user7Ef
FNDA:52,_ZNK6sacfmt5Trace6depminEv
FNDA:30,_ZNK6sacfmt5Trace5user7Ev
FNDA:500000,_ZN6sacfmt22equal_within_toleranceEddd
FNDA:30,_ZNK6sacfmt5Trace2kaB5cxx11Ev
FNDA:45,_ZN6sacfmt5Trace5user5Ef
FNDA:45,_ZN6sacfmt5Trace3kt6ERKNSt7__cxx1112basic_stringIcSt11char_traitsIcESaIcEEE
FNDA:5,_ZNK6sacfmt5TraceeqERKS0_
FNDA:45,_ZN6sacfmt5Trace5resp3Ef
FNDA:45,_ZN6sacfmt5Trace6kdatrdERKNSt7__cxx1112basic_stringIcSt11char_traitsIcESaIcEEE
FNDA:30,_ZNK6sacfmt5Trace6ievtypEv
FNDA:30,_ZNK6sacfmt5Trace5gcarcEv
FNDA:45,_ZN6sacfmt5Trace5noridEi
FNDA:2201540,_ZN6sacfmt15convert_to_wordIfEESt6vectorIcSaIcEET_
FNDA:52,_ZNK6sacfmt5Trace1aEv
FNDA:45,_ZN6sacfmt5Trace5user6Ef
FNDA:45,_ZN6sacfmt5Trace2koERKNSt7__cxx1112basic_stringIcSt11char_traitsIcESaIcEEE
FNDA:30,_ZNK6sacfmt5Trace6ievregEv
FNDA:90,_ZN6sacfmt14binary_to_boolERKSt6bitsetILm32EE
FNDA:10,_ZN6sacfmt21long_string_to_binaryENSt7__cxx1112basic_stringIcSt11char_traitsIcESaIcEEE
FNDA:46,_ZN6sacfmt5Trace6lovrokEb
FNDA:52,_ZNK6sacfmt5Trace4evlaEv
FNDA:30,_ZNK6sacfmt5Trace5resp5Ev
FNDA:30,_ZNK6sacfmt5Trace5resp8Ev
FNDA:30,_ZNK6sacfmt5Trace6kuser1B5cxx11Ev
FNDA:45,_ZN6sacfmt5Trace5user8Ef
FNDA:46,_ZN6sacfmt5Trace6lcaldaEb
FNDA:2201354,_ZN6sacfmt15binary_to_floatERKSt6bitsetILm32EE
FNDA:30,_ZNK6sacfmt5Trace3kt8B5cxx11Ev
FNDA:30,_ZNK6sacfmt5Trace5user9Ev
FNDA:45,_ZN6sacfmt5Trace5nzminEi
FNDA:496,_ZN6sacfmt16binary_to_doubleERKSt6bitsetILm64EE
FNDA:45,_ZN6sacfmt5Trace6ievregEi
FNDA:97,_ZNK6sacfmt5Trace5levenEv
FNDA:30,_ZNK6sacfmt5Trace6nzjdayEv
FNDA:30,_ZNK6sacfmt5Trace3bazEv
FNDA:542,_ZN6sacfmt22remove_trailing_spacesERNSt7__cxx1112basic_stringIcSt11char_traitsIcESaIcEEE
FNDA:30,_ZNK6sacfmt5Trace5resp0Ev
FNDA:45,_ZN6sacfmt5Trace6isynthEi
FNDA:45,_ZN6sacfmt5Trace5resp2Ef
FNDA:45,_ZN6sacfmt5Trace6ievtypEi
FNDA:45,_ZN6sacfmt5Trace5nevidEi
FNDA:52,_ZNK6sacfmt5Trace2t0Ev
FNDA:45,_ZN6sacfmt5Trace4distEf
FNDA:1012,_ZN6sacfmt12concat_wordsERKSt6bitsetILm32EES3_
FNDA:30,_ZNK6sacfmt5Trace2kfB5cxx11Ev
FNDA:45,_ZN6sacfmt5Trace4evdpEf
FNDA:45,_ZN6sacfmt5Trace8ymaximumEf
FNDA:22,_ZN6sacfmt5TraceC2ERKNSt10filesystem7__cxx114pathE
FNDA:45,_ZN6sacfmt5Trace7imagtypEi
FNDA:30,_ZNK6sacfmt5Trace5resp2Ev
FNDA:46,_ZN6sacfmt5Trace6lpspolEb
FNDA:45,_ZN6sacfmt5Trace6nzjdayEi
FNDA:22,_ZN6sacfmt12concat_wordsERKSt6bitsetILm64EES3_
FNDA:30,_ZNK6sacfmt5Trace5resp7Ev
FNDA:30,_ZNK6sacfmt5Trace6depmenEv
FNDA:2203410,_ZN6sacfmt11write_wordsEPSt14basic_ofstreamIcSt11char_traitsIcEERKSt6vectorIcSaIcEE
FNDA:45,_ZN6sacfmt5Trace5kholeERKNSt7__cxx1112basic_stringIcSt11char_traitsIcESaIcEEE
FNDA:45,_ZN6sacfmt5Trace6kcmpnmERKNSt7__cxx1112basic_stringIcSt11char_traitsIcESaIcEEE
FNDA:30,_ZNK6sacfmt5Trace6knetwkB5cxx11Ev
FNDA:30,_ZNK6sacfmt5Trace6kcmpnmB5cxx11Ev
FNDA:30,_ZNK6sacfmt5Trace4stelEv
FNDA:30,_ZNK6sacfmt5Trace5kstnmB5cxx11Ev
FNDA:67,_ZN6sacfmt5Trace2t9Ed
FNDA:30,_ZNK6sacfmt5Trace5iinstEv
FNDA:52,_ZNK6sacfmt5Trace2t2Ev
FNDA:484,_ZN6sacfmt15convert_to_wordEd
FNDA:45,_ZN6sacfmt5Trace5kstnmERKNSt7__cxx1112basic_stringIcSt11char_traitsIcESaIcEEE
FNDA:30,_ZNK6sacfmt5Trace5nevidEv
FNDA:45,_ZN6sacfmt5Trace6kuser2ERKNSt7__cxx1112basic_stringIcSt11char_traitsIcESaIcEEE
FNDA:45,_ZN6sacfmt5Trace6kuser0ERKNSt7__cxx1112basic_stringIcSt11char_traitsIcESaIcEEE
FNDA:67,_ZN6sacfmt5Trace2sbEd
FNDA:30,_ZNK6sacfmt5Trace5kholeB5cxx11Ev
FNDA:30,_ZNK6sacfmt5Trace6kuser2B5cxx11Ev
FNDA:67,_ZN6sacfmt5Trace2t7Ed
FNDA:30,_ZNK6sacfmt5Trace7imagtypEv
FNDA:31,_ZNK6sacfmt5Trace6lovrokEv
FNDA:45,_ZN6sacfmt5Trace5resp1Ef
FNDA:30,_ZNK6sacfmt5Trace6istregEv
FNDA:67,_ZN6sacfmt5Trace2t2Ed
FNDA:28,_ZNK6sacfmt5Trace5user0Ev
FNDA:52,_ZNK6sacfmt5Trace5deltaEv
FNDA:15,_ZNK6sacfmt5Trace5data2Ev
FNDA:45,_ZN6sacfmt5Trace3kt0ERKNSt7__cxx1112basic_stringIcSt11char_traitsIcESaIcEEE
FNDA:30,_ZNK6sacfmt5Trace3kt1B5cxx11Ev
FNDA:45,_ZN6sacfmt5Trace8xminimumEf
FNDA:45,_ZN6sacfmt5Trace3kt9ERKNSt7__cxx1112basic_stringIcSt11char_traitsIcESaIcEEE
FNDA:30,_ZNK6sacfmt5Trace5kinstB5cxx11Ev
FNDA:0,_ZN6sacfmt5Trace12legacy_writeERKNSt10filesystem7__cxx114pathE
FNDA:30,_ZNK6sacfmt5Trace6nxsizeEv
FNDA:45,_ZN6sacfmt5Trace5kevnmERKNSt7__cxx1112basic_stringIcSt11char_traitsIcESaIcEEE
FNDA:30,_ZNK6sacfmt5Trace7imagsrcEv
FNDA:53,_ZNK6sacfmt5Trace6lcaldaEv
FNDA:45,_ZN6sacfmt5Trace2kfERKNSt7__cxx1112basic_stringIcSt11char_traitsIcESaIcEEE
FNDA:0,_ZN6sacfmt16convert_to_wordsILm4EEESt5arrayIcXT_EERKNSt7__cxx1112basic_stringIcSt11char_traitsIcESaIcEEEi
FNDA:45,_ZN6sacfmt5Trace5iqualEi
FNDA:67,_ZN6sacfmt5Trace6sdeltaEd
FNDA:45,_ZN6sacfmt5Trace6cmpincEf
FNDA:30,_ZNK6sacfmt5Trace4evelEv
FNDA:52,_ZNK6sacfmt5Trace2t7Ev
FNDA:30,_ZNK6sacfmt5Trace3kt3B5cxx11Ev
FNDA:45,_ZN6sacfmt5Trace5user1Ef
FNDA:22,_ZN6sacfmt5Trace5writeERKNSt10filesystem7__cxx114pathEb
FNDA:484,_ZN6sacfmt16convert_to_wordsILm8EEESt5arrayIcXT_EERKNSt7__cxx1112basic_stringIcSt11char_traitsIcESaIcEEEi
FNDA:45,_ZN6sacfmt5Trace3bazEf
FNDA:67,_ZN6sacfmt5Trace4evlaEd
FNDA:45,_ZN6sacfmt5Trace3kt5ERKNSt7__cxx1112basic_stringIcSt11char_traitsIcESaIcEEE
FNDA:45,_ZN6sacfmt5Trace3kt3ERKNSt7__cxx1112basic_stringIcSt11char_traitsIcESaIcEEE
FNDA:67,_ZN6sacfmt5Trace2t4Ed
FNDA:32,_ZNK6sacfmt5Trace5nvhdrEv
FNDA:30,_ZNK6sacfmt5Trace5resp4Ev
FNDA:67,_ZN6sacfmt5Trace1bEd
FNDA:67,_ZN6sacfmt5Trace4stloEd
FNDA:30,_ZNK6sacfmt5Trace8xminimumEv
FNDA:45,_ZN6sacfmt5Trace3kt4ERKNSt7__cxx1112basic_stringIcSt11char_traitsIcESaIcEEE
FNDA:12,_ZN6sacfmt15float_to_binaryEf
FNDA:45,_ZN6sacfmt5Trace3kt8ERKNSt7__cxx1112basic_stringIcSt11char_traitsIcESaIcEEE
FNDA:30,_ZNK6sacfmt5Trace6nzyearEv
FNDA:45,_ZN6sacfmt5Trace4stelEf
FNDA:45,_ZN6sacfmt5Trace5resp8Ef
FNDA:30,_ZNK6sacfmt5Trace5resp3Ev
FNDA:30,_ZNK6sacfmt5Trace5user6Ev
FNDA:184,_ZNK6sacfmt5Trace5ibodyEv
FNDA:110,_ZN6sacfmt12bool_to_wordEb
FNDA:30,_ZNK6sacfmt5Trace8yminimumEv
FNDA:45,_ZN6sacfmt5Trace6nzyearEi
FNDA:30,_ZNK6sacfmt5Trace5user5Ev
FNDA:12,_ZN6sacfmt16double_to_binaryEd
FNDA:45,_ZN6sacfmt5Trace6kuser1ERKNSt7__cxx1112basic_stringIcSt11char_traitsIcESaIcEEE
FNDA:67,_ZN6sacfmt5Trace1aEd
FNDA:52,_ZNK6sacfmt5Trace4stlaEv
FNDA:37,_ZNK6sacfmt5Trace5data1Ev
FNDA:45,_ZN6sacfmt5Trace3kt7ERKNSt7__cxx1112basic_stringIcSt11char_traitsIcESaIcEEE
FNDA:45,_ZN6sacfmt5Trace2azEf
FNDA:580,_ZN6sacfmt13binary_to_intESt6bitsetILm32EE
FNDA:45,_ZN6sacfmt5Trace5user2Ef
FNDA:67,_ZN6sacfmt5Trace2t3Ed
FNDA:30,_ZNK6sacfmt5Trace8xmaximumEv
FNDA:30,_ZNK6sacfmt5Trace4idepEv
FNDA:542,_ZN6sacfmt15string_cleaningERKNSt7__cxx1112basic_stringIcSt11char_traitsIcESaIcEEE
FNDA:67,_ZN6sacfmt5Trace2t5Ed
FNDA:30,_ZNK6sacfmt5Trace3magEv
FNDA:38,_ZN6sacfmt5TraceC2Ev
FNDA:52,_ZNK6sacfmt5Trace6nysizeEv
FNDA:30,_ZNK6sacfmt5Trace8ymaximumEv
FNDA:30,_ZNK6sacfmt5Trace5user1Ev
FNDA:45,_ZN6sacfmt5Trace3kt1ERKNSt7__cxx1112basic_stringIcSt11char_traitsIcESaIcEEE
FNDA:45,_ZN6sacfmt5Trace6nxsizeEi
FNDA:30,_ZNK6sacfmt5Trace6nzhourEv
FNDA:30,_ZNK6sacfmt5Trace6kuser0B5cxx11Ev
FNDA:30,_ZNK6sacfmt5Trace3kt9B5cxx11Ev
FNDA:45,_ZN6sacfmt5Trace4nptsEi
FNDA:22,_ZN6sacfmt16convert_to_wordsILm16EEESt5arrayIcXT_EERKNSt7__cxx1112basic_stringIcSt11char_traitsIcESaIcEEEi
FNDA:23,_ZN6sacfmt13word_positionEi
FNDA:30,_ZNK6sacfmt5Trace5user4Ev
FNDA:45,_ZN6sacfmt5Trace8xmaximumEf
FNDA:52,_ZNK6sacfmt5Trace2t3Ev
FNDA:30,_ZNK6sacfmt5Trace5noridEv
FNDA:30,_ZNK6sacfmt5Trace5nzsecEv
FNDA:45,_ZN6sacfmt5Trace5resp6Ef
FNDA:30,_ZNK6sacfmt5Trace6nsnptsEv
FNDA:30,_ZNK6sacfmt5Trace5kevnmB5cxx11Ev
FNDA:52,_ZNK6sacfmt5Trace4stloEv
FNDA:30,_ZNK6sacfmt5Trace5resp9Ev
FNDA:46,_ZN6sacfmt5Trace5levenEb
FNDA:45,_ZN6sacfmt5Trace6depminEf
FNDA:45,_ZN6sacfmt5Trace6nzhourEi
FNDA:45,_ZN6sacfmt5Trace5user3Ef
FNDA:46,_ZN6sacfmt5Trace5kinstERKNSt7__cxx1112basic_stringIcSt11char_traitsIcESaIcEEE
FNDA:1012,_ZN6sacfmt14read_two_wordsEPSt14basic_ifstreamIcSt11char_traitsIcEE
FNDA:45,_ZN6sacfmt5Trace5resp5Ef
FNDA:30,_ZNK6sacfmt5Trace3kt4B5cxx11Ev
FNDA:45,_ZN6sacfmt5Trace5resp7Ef
FNDA:67,_ZN6sacfmt5Trace5deltaEd
FNDA:45,_ZN6sacfmt5Trace5user0Ef
FNDA:45,_ZN6sacfmt5Trace5user4Ef
FNDA:45,_ZN6sacfmt5Trace4evelEf
FNDA:67,_ZN6sacfmt5Trace4evloEd
FNDA:45,_ZN6sacfmt5Trace6knetwkERKNSt7__cxx1112basic_stringIcSt11char_traitsIcESaIcEEE
FNDA:30,_ZNK6sacfmt5Trace4evdpEv
FNDA:770,_ZN6sacfmt15convert_to_wordIiEESt6vectorIcSaIcEET_
FNDA:30,_ZNK6sacfmt5Trace5nzminEv
FNDA:45,_ZN6sacfmt5Trace5cmpazEf
FNDA:45,_ZN6sacfmt5Trace2kaERKNSt7__cxx1112basic_stringIcSt11char_traitsIcESaIcEEE
FNDA:52,_ZNK6sacfmt5Trace2t9Ev
FNDA:67,_ZN6sacfmt5Trace4stlaEd
FNDA:1,_ZN6sacfmt5Trace5data2ERKSt6vectorIdSaIdEE
FNDA:52,_ZNK6sacfmt5Trace2t6Ev
FNDA:96,_ZNK6sacfmt5Trace6iftypeEv
FNDA:45,_ZN6sacfmt5Trace5ibodyEi
FNDA:30,_ZNK6sacfmt5Trace5nwfidEv
FNDA:45,_ZN6sacfmt5Trace6depmaxEf
FNDA:30,_ZNK6sacfmt5Trace5resp6Ev
FNDA:45,_ZN6sacfmt5Trace4idepEi
FNDA:30,_ZNK6sacfmt5Trace5iqualEv
FNDA:492,_ZN6sacfmt16binary_to_stringB5cxx11ERKSt6bitsetILm64EE
FNDA:52,_ZNK6sacfmt5Trace2t8Ev
FNDA:45,_ZN6sacfmt5Trace5gcarcEf
FNDA:67,_ZN6sacfmt5Trace2t1Ed
FNDA:67,_ZN6sacfmt5Trace2t0Ed
FNDA:30,_ZNK6sacfmt5Trace4distEv
FNDA:2204444,_ZN6sacfmt9read_wordEPSt14basic_ifstreamIcSt11char_traitsIcEE
FNDA:45,_ZN6sacfmt5Trace6iztypeEi
FNDA:52,_ZNK6sacfmt5Trace6depmaxEv
FNDA:8,_ZN6sacfmt13int_to_binaryEi
FNDA:22,_ZN6sacfmt15read_four_wordsEPSt14basic_ifstreamIcSt11char_traitsIcEE
FNDA:45,_ZN6sacfmt5Trace8yminimumEf
FNDA:30,_ZNK6sacfmt5Trace3kt5B5cxx11Ev
FNDA:30,_ZNK6sacfmt5Trace6isynthEv
FNDA:45,_ZN6sacfmt5Trace5user9Ef
FNF:269
FNH:267
DA:8,23
DA:10,8
DA:11,8
DA:12,8
DA:13,3
DA:14,8
DA:17,580
DA:18,580
DA:19,580
DA:20,3
DA:21,3
DA:22,3
DA:24,3
DA:25,577
DA:26,580
DA:30,12
DA:32,2201354
DA:35,12
DA:37,496
DA:40,542
DA:41,570
DA:42,28
DA:44,542
DA:45,542
DA:46,598
DA:47,56
DA:49,542
DA:52,542
DA:53,542
DA:54,542
DA:55,542
DA:58,542
DA:59,542
DA:60,542
DA:61,0
DA:63,8
DA:64,8
DA:66,8
DA:69,8
DA:71,8
DA:73,6
DA:75,8
DA:77,8
DA:78,72
DA:79,64
DA:80,64
DA:81,576
DA:83,8
DA:86,492
DA:87,492
DA:88,492
DA:89,492
DA:91,4428
DA:93,35424
DA:94,3936
DA:96,984
DA:97,492
DA:99,10
DA:100,10
DA:101,10
DA:103,10
DA:105,10
DA:107,8
DA:109,10
DA:111,10
DA:112,170
DA:113,160
DA:114,160
DA:115,1440
DA:117,10
DA:120,32
DA:121,32
DA:122,32
DA:123,32
DA:125,544
DA:127,4608
DA:128,512
DA:130,64
DA:131,32
DA:133,2
DA:134,2
DA:135,2
DA:136,2
DA:139,90
DA:141,1012
DA:142,1012
DA:143,33396
DA:144,32384
DA:146,1012
DA:149,22
DA:150,22
DA:151,1430
DA:152,1408
DA:154,22
DA:159,2204444
DA:160,2204444
DA:161,2204444
DA:167,2204444
DA:169,2204444
DA:170,11022220
DA:171,8817776
DA:172,8817776
DA:174,79359984
DA:175,70542208
DA:178,2204444
DA:181,1012
DA:182,1012
DA:183,1012
DA:185,2024
DA:189,22
DA:190,22
DA:191,22
DA:193,44
DA:197,22
DA:199,22
DA:200,22
DA:201,22
DA:202,2200022
DA:203,2200000
DA:205,22
DA:206,0
DA:210,2203410
DA:211,2203410
DA:212,11021186
DA:213,2203410
DA:217,2202310
DA:222,2202310
DA:223,2202310
DA:224,2202310
DA:225,11011550
DA:226,4404620
DA:227,0
DA:233,484
DA:238,484
DA:239,484
DA:240,484
DA:241,4356
DA:242,968
DA:243,0
DA:247,506
DA:250,506
DA:251,4730
DA:252,4224
DA:254,506
DA:265,110
DA:266,110
DA:267,110
DA:268,110
DA:269,440
DA:270,110
DA:271,0
DA:277,12
DA:280,12
DA:281,500012
DA:282,500000
DA:283,0
DA:286,12
DA:288,500000
DA:290,500000
DA:291,500000
DA:296,912
DA:297,38
DA:298,38
DA:299,38
DA:300,38
DA:301,38
DA:302,76
DA:304,5
DA:305,5
DA:306,5
DA:307,5
DA:308,4
DA:309,3
DA:310,3
DA:311,3
DA:315,52
DA:316,52
DA:317,30
DA:318,30
DA:319,30
DA:320,30
DA:321,30
DA:322,30
DA:323,30
DA:324,30
DA:325,30
DA:326,30
DA:327,30
DA:328,30
DA:329,30
DA:330,30
DA:331,30
DA:332,30
DA:333,28
DA:334,30
DA:335,30
DA:336,30
DA:337,30
DA:338,30
DA:339,30
DA:340,30
DA:341,30
DA:342,30
DA:343,30
DA:344,184
DA:345,30
DA:346,30
DA:347,30
DA:348,30
DA:349,30
DA:350,30
DA:351,30
DA:352,30
DA:353,30
DA:355,52
DA:356,52
DA:357,52
DA:358,52
DA:359,52
DA:360,52
DA:361,52
DA:362,52
DA:363,52
DA:364,52
DA:365,52
DA:366,52
DA:367,52
DA:368,52
DA:369,52
DA:370,52
DA:371,52
DA:372,52
DA:373,52
DA:374,52
DA:375,52
DA:376,52
DA:378,30
DA:379,30
DA:380,30
DA:381,30
DA:382,30
DA:383,30
DA:384,32
DA:385,30
DA:386,30
DA:387,118
DA:388,30
DA:389,30
DA:390,30
DA:391,52
DA:392,96
DA:393,30
DA:394,52
DA:395,30
DA:396,30
DA:397,30
DA:398,30
DA:399,30
DA:400,30
DA:401,30
DA:402,30
DA:403,184
DA:405,97
DA:406,31
DA:407,31
DA:408,53
DA:410,60
DA:411,60
DA:412,60
DA:413,60
DA:414,60
DA:415,60
DA:416,60
DA:417,60
DA:418,60
DA:419,60
DA:420,60
DA:421,60
DA:422,60
DA:423,60
DA:424,60
DA:425,60
DA:426,60
DA:427,60
DA:428,60
DA:429,60
DA:430,60
DA:431,60
DA:432,60
DA:434,74
DA:435,30
DA:438,45
DA:439,45
DA:440,45
DA:441,45
DA:442,45
DA:443,45
DA:444,45
DA:445,45
DA:446,45
DA:447,45
DA:448,45
DA:449,45
DA:450,45
DA:451,45
DA:452,45
DA:453,45
DA:454,45
DA:455,45
DA:456,45
DA:457,45
DA:458,45
DA:459,45
DA:460,45
DA:461,45
DA:462,45
DA:463,45
DA:464,45
DA:465,45
DA:466,45
DA:467,45
DA:468,45
DA:469,45
DA:470,45
DA:471,45
DA:472,45
DA:473,45
DA:474,45
DA:475,45
DA:476,45
DA:478,67
DA:479,67
DA:480,67
DA:481,67
DA:482,67
DA:483,67
DA:484,67
DA:485,67
DA:486,67
DA:487,67
DA:488,67
DA:489,67
DA:490,67
DA:491,67
DA:492,67
DA:493,67
DA:494,67
DA:495,67
DA:496,67
DA:497,67
DA:498,67
DA:499,67
DA:501,45
DA:502,45
DA:503,45
DA:504,45
DA:505,45
DA:506,45
DA:507,53
DA:508,45
DA:509,45
DA:510,45
DA:511,45
DA:512,45
DA:513,45
DA:514,45
DA:515,45
DA:516,45
DA:517,45
DA:518,45
DA:519,45
DA:520,45
DA:521,45
DA:522,45
DA:523,45
DA:524,45
DA:525,45
DA:526,45
DA:528,46
DA:529,46
DA:530,46
DA:531,46
DA:533,45
DA:534,45
DA:535,45
DA:536,45
DA:537,45
DA:538,45
DA:539,45
DA:540,45
DA:541,45
DA:542,45
DA:543,45
DA:544,45
DA:545,45
DA:546,45
DA:547,45
DA:548,45
DA:549,45
DA:550,45
DA:551,45
DA:552,45
DA:553,45
DA:554,45
DA:555,46
DA:557,52
DA:558,1
DA:561,528
DA:562,22
DA:563,22
DA:564,22
DA:567,22
DA:568,22
DA:569,22
DA:571,22
DA:572,22
DA:573,22
DA:574,22
DA:575,22
DA:576,22
DA:578,22
DA:580,22
DA:581,22
DA:582,22
DA:583,22
DA:584,22
DA:585,22
DA:586,22
DA:587,22
DA:588,22
DA:589,22
DA:590,22
DA:592,22
DA:593,22
DA:594,22
DA:595,22
DA:596,22
DA:597,22
DA:598,22
DA:599,22
DA:600,22
DA:601,22
DA:603,22
DA:604,22
DA:605,22
DA:606,22
DA:608,22
DA:609,22
DA:610,22
DA:611,22
DA:612,22
DA:614,22
DA:615,22
DA:616,22
DA:617,22
DA:618,22
DA:619,22
DA:620,22
DA:621,22
DA:622,22
DA:623,22
DA:625,22
DA:626,22
DA:627,22
DA:628,22
DA:630,22
DA:631,22
DA:632,22
DA:633,22
DA:634,22
DA:635,22
DA:636,22
DA:637,22
DA:638,22
DA:640,176
DA:642,22
DA:643,22
DA:644,22
DA:645,22
DA:646,22
DA:647,22
DA:649,22
DA:650,22
DA:651,22
DA:652,22
DA:653,22
DA:654,22
DA:655,22
DA:656,22
DA:658,22
DA:659,22
DA:660,22
DA:661,22
DA:663,22
DA:664,22
DA:665,22
DA:666,22
DA:667,22
DA:668,22
DA:669,22
DA:670,22
DA:671,22
DA:672,22
DA:674,176
DA:676,22
DA:677,22
DA:678,22
DA:679,22
DA:681,22
DA:683,22
DA:685,22
DA:687,22
DA:688,22
DA:689,22
DA:690,22
DA:691,22
DA:692,22
DA:693,22
DA:694,22
DA:695,22
DA:696,22
DA:697,22
DA:698,22
DA:699,22
DA:700,22
DA:701,22
DA:702,22
DA:703,22
DA:704,22
DA:705,22
DA:706,22
DA:707,22
DA:710,22
DA:712,22
DA:714,22
DA:715,0
DA:716,0
DA:721,22
DA:722,22
DA:723,22
DA:724,22
DA:725,22
DA:726,22
DA:727,22
DA:728,22
DA:729,22
DA:730,22
DA:731,22
DA:732,22
DA:733,22
DA:734,22
DA:735,22
DA:736,22
DA:737,22
DA:738,22
DA:739,22
DA:740,22
DA:741,22
DA:742,22
DA:743,22
DA:745,22
DA:746,44
DA:749,22
DA:751,22
DA:752,22
DA:753,22
DA:754,22
DA:755,22
DA:756,22
DA:758,22
DA:759,22
DA:760,22
DA:761,22
DA:762,22
DA:763,22
DA:765,22
DA:766,22
DA:767,22
DA:768,22
DA:769,22
DA:770,22
DA:771,22
DA:772,22
DA:773,22
DA:774,22
DA:775,22
DA:776,22
DA:777,22
DA:778,22
DA:779,22
DA:780,22
DA:781,22
DA:782,22
DA:783,22
DA:784,22
DA:785,22
DA:786,22
DA:787,22
DA:788,22
DA:789,22
DA:790,22
DA:791,22
DA:792,22
DA:793,22
DA:794,22
DA:795,22
DA:796,22
DA:797,22
DA:798,22
DA:799,22
DA:800,22
DA:801,22
DA:802,22
DA:803,22
DA:804,22
DA:805,22
DA:806,22
DA:807,22
DA:808,22
DA:809,22
DA:810,22
DA:811,22
DA:812,22
DA:813,22
DA:814,22
DA:815,22
DA:816,22
DA:817,22
DA:818,22
DA:820,176
DA:821,22
DA:822,22
DA:823,22
DA:824,22
DA:825,22
DA:826,22
DA:827,22
DA:828,22
DA:829,22
DA:830,22
DA:831,22
DA:832,22
DA:833,22
DA:834,22
DA:836,22
DA:837,22
DA:838,22
DA:839,22
DA:841,22
DA:842,22
DA:843,22
DA:844,22
DA:845,22
DA:846,22
DA:847,22
DA:848,22
DA:849,22
DA:850,22
DA:852,176
DA:853,22
DA:854,22
DA:855,22
DA:856,22
DA:858,22
DA:861,22
DA:862,22
DA:865,22
DA:866,22
DA:868,22
DA:869,22
DA:871,22
DA:872,22
DA:874,22
DA:875,22
DA:877,22
DA:878,22
DA:880,22
DA:881,22
DA:883,22
DA:884,22
DA:886,22
DA:887,22
DA:889,22
DA:890,22
DA:892,22
DA:893,22
DA:895,22
DA:896,22
DA:898,22
DA:899,22
DA:901,22
DA:902,22
DA:904,22
DA:905,22
DA:907,22
DA:908,22
DA:910,22
DA:911,22
DA:913,22
DA:914,22
DA:916,22
DA:917,22
DA:919,22
DA:920,22
DA:922,22
DA:923,22
DA:925,22
DA:926,22
DA:928,22
DA:929,22
DA:931,2200022
DA:932,2200000
DA:933,22
DA:934,22
DA:935,0
DA:936,0
DA:937,0
DA:939,22
DA:941,22
DA:942,22
DA:943,22
DA:944,22
DA:945,22
DA:946,22
DA:947,22
DA:948,22
DA:949,22
DA:950,22
DA:951,22
DA:952,22
DA:953,22
DA:954,22
DA:955,22
DA:956,22
DA:957,22
DA:958,22
DA:959,22
DA:960,22
DA:961,22
DA:962,22
DA:964,22
DA:965,22
DA:967,0
DA:968,0
DA:969,0
LF:745
LH:731
end_of_record
TN:
SF:/home/ablanch/my_git/sac-format/src/sac_format.hpp
FN:55,_ZN6sacfmt13float_to_bitsC2Ef
FN:56,_ZN6sacfmt13float_to_bitsC2ERKSt6bitsetILm32EE
FN:62,_ZN6sacfmt14double_to_bitsC2Ed
FN:63,_ZN6sacfmt14double_to_bitsC2ERKSt6bitsetILm64EE
FNDA:2201354,_ZN6sacfmt13float_to_bitsC2ERKSt6bitsetILm32EE
FNDA:12,_ZN6sacfmt14double_to_bitsC2Ed
FNDA:12,_ZN6sacfmt13float_to_bitsC2Ef
FNDA:496,_ZN6sacfmt14double_to_bitsC2ERKSt6bitsetILm64EE
FNF:4
FNH:4
DA:55,12
DA:56,2201354
DA:62,12
DA:63,496
LF:4
LH:4
end_of_record
